target datalayout = "e-m:e-p270:32:32-p271:32:32-p272:64:64-i64:64-i128:128-f80:128-n8:16:32:64-S128"
target triple = "x86_64-pc-linux-gnu"

%struct.pmix_hash_table_t = type { %struct.pmix_object_t, ptr, ptr, i64, i64, i64, i32, i32, i32, i32, ptr }
%struct.pmix_object_t = type { %union.pthread_mutex_t, ptr, i32, %struct.pmix_tma }
%union.pthread_mutex_t = type { %struct.__pthread_mutex_s }
%struct.__pthread_mutex_s = type { i32, i32, i32, i32, i32, i16, i16, %struct.__pthread_internal_list }
%struct.__pthread_internal_list = type { ptr, ptr }
%struct.pmix_tma = type { ptr, ptr, ptr, ptr, ptr, ptr, ptr, ptr }

; Function Attrs: inlinehint nounwind uwtable
define internal ptr @pmix_tma_calloc(ptr noundef %0, i64 noundef %1, i64 noundef %2) #2 {
  %4 = alloca ptr, align 8
  %5 = alloca ptr, align 8
  %6 = alloca i64, align 8
  %7 = alloca i64, align 8
  store ptr %0, ptr %5, align 8, !tbaa !26
  store i64 %1, ptr %6, align 8, !tbaa !28
  store i64 %2, ptr %7, align 8, !tbaa !28
  %8 = load ptr, ptr %5, align 8, !tbaa !26
  %9 = icmp ne ptr null, %8
  br i1 %9, label %10, label %18

10:                                               ; preds = %3
  %11 = load ptr, ptr %5, align 8, !tbaa !26
  %12 = getelementptr inbounds nuw %struct.pmix_tma, ptr %11, i32 0, i32 1
  %13 = load ptr, ptr %12, align 8, !tbaa !33
  %14 = load ptr, ptr %5, align 8, !tbaa !26
  %15 = load i64, ptr %6, align 8, !tbaa !28
  %16 = load i64, ptr %7, align 8, !tbaa !28
  %17 = call ptr %13(ptr noundef %14, i64 noundef %15, i64 noundef %16)
  store ptr %17, ptr %4, align 8
  br label %22

18:                                               ; preds = %3
  %19 = load i64, ptr %6, align 8, !tbaa !28
  %20 = load i64, ptr %7, align 8, !tbaa !28
  %21 = call noalias ptr @calloc(i64 noundef %19, i64 noundef %20) #10
  store ptr %21, ptr %4, align 8
  br label %22

22:                                               ; preds = %18, %10
  %23 = load ptr, ptr %4, align 8
  ret ptr %23
}

; Function Attrs: nounwind uwtable
define internal i64 @pmix_hash_round_capacity_up(i64 noundef %0) #0 {
  %2 = alloca i64, align 8
  store i64 %0, ptr %2, align 8, !tbaa !28
  %3 = load i64, ptr %2, align 8, !tbaa !28
  %4 = add i64 %3, 29
  %5 = udiv i64 %4, 30
  %6 = mul i64 %5, 30
  %7 = add i64 %6, 1
  ret i64 %7
}

; Function Attrs: inlinehint nounwind uwtable
define internal ptr @pmix_obj_get_tma(ptr noundef %0) #2 {
  %2 = alloca ptr, align 8
  %3 = alloca ptr, align 8
  store ptr %0, ptr %3, align 8, !tbaa !30
  %4 = load ptr, ptr %3, align 8, !tbaa !30
  %5 = getelementptr inbounds nuw %struct.pmix_object_t, ptr %4, i32 0, i32 3
  %6 = getelementptr inbounds nuw %struct.pmix_tma, ptr %5, i32 0, i32 0
  %7 = load ptr, ptr %6, align 8, !tbaa !32
  %8 = icmp ne ptr %7, null
  br i1 %8, label %9, label %12

9:                                                ; preds = %1
  %10 = load ptr, ptr %3, align 8, !tbaa !30
  %11 = getelementptr inbounds nuw %struct.pmix_object_t, ptr %10, i32 0, i32 3
  store ptr %11, ptr %2, align 8
  br label %13

12:                                               ; preds = %1
  store ptr null, ptr %2, align 8
  br label %13

13:                                               ; preds = %12, %9
  %14 = load ptr, ptr %2, align 8
  ret ptr %14
}

; Function Attrs: nounwind uwtable
define i32 @pmix_hash_table_init2(ptr noundef %0, i64 noundef %1, i32 noundef %2, i32 noundef %3, i32 noundef %4, i32 noundef %5) #0 {
  %7 = alloca i32, align 4
  %8 = alloca ptr, align 8
  %9 = alloca i64, align 8
  %10 = alloca i32, align 4
  %11 = alloca i32, align 4
  %12 = alloca i32, align 4
  %13 = alloca i32, align 4
  %14 = alloca ptr, align 8
  %15 = alloca i64, align 8
  %16 = alloca i64, align 8
  %17 = alloca i32, align 4
  store ptr %0, ptr %8, align 8, !tbaa !3
  store i64 %1, ptr %9, align 8, !tbaa !28
  store i32 %2, ptr %10, align 4, !tbaa !29
  store i32 %3, ptr %11, align 4, !tbaa !29
  store i32 %4, ptr %12, align 4, !tbaa !29
  store i32 %5, ptr %13, align 4, !tbaa !29
  call void @llvm.lifetime.start.p0(i64 8, ptr %14) #9
  %18 = load ptr, ptr %8, align 8, !tbaa !3
  %19 = getelementptr inbounds nuw %struct.pmix_hash_table_t, ptr %18, i32 0, i32 0
  %20 = call ptr @pmix_obj_get_tma(ptr noundef %19)
  store ptr %20, ptr %14, align 8, !tbaa !26
  call void @llvm.lifetime.start.p0(i64 8, ptr %15) #9
  %21 = load i64, ptr %9, align 8, !tbaa !28
  %22 = load i32, ptr %11, align 4, !tbaa !29
  %23 = sext i32 %22 to i64
  %24 = mul i64 %21, %23
  %25 = load i32, ptr %10, align 4, !tbaa !29
  %26 = sext i32 %25 to i64
  %27 = udiv i64 %24, %26
  store i64 %27, ptr %15, align 8, !tbaa !28
  call void @llvm.lifetime.start.p0(i64 8, ptr %16) #9
  %28 = load i64, ptr %15, align 8, !tbaa !28
  %29 = call i64 @pmix_hash_round_capacity_up(i64 noundef %28)
  store i64 %29, ptr %16, align 8, !tbaa !28
  %30 = load ptr, ptr %14, align 8, !tbaa !26
  %31 = load i64, ptr %16, align 8, !tbaa !28
  %32 = call ptr @pmix_tma_calloc(ptr noundef %30, i64 noundef %31, i64 noundef 40)
  %33 = load ptr, ptr %8, align 8, !tbaa !3
  %34 = getelementptr inbounds nuw %struct.pmix_hash_table_t, ptr %33, i32 0, i32 2
  store ptr %32, ptr %34, align 8, !tbaa !8
  %35 = load ptr, ptr %8, align 8, !tbaa !3
  %36 = getelementptr inbounds nuw %struct.pmix_hash_table_t, ptr %35, i32 0, i32 2
  %37 = load ptr, ptr %36, align 8, !tbaa !8
  %38 = icmp eq ptr null, %37
  %39 = xor i1 %38, true
  %40 = xor i1 %39, true
  %41 = zext i1 %40 to i32
  %42 = sext i32 %41 to i64
  %43 = call i64 @llvm.expect.i64(i64 %42, i64 0)
  %44 = icmp ne i64 %43, 0
  br i1 %44, label %45, label %46

45:                                               ; preds = %6
  store i32 -29, ptr %7, align 4
  store i32 1, ptr %17, align 4
  br label %73

46:                                               ; preds = %6
  %47 = load i64, ptr %16, align 8, !tbaa !28
  %48 = load ptr, ptr %8, align 8, !tbaa !3
  %49 = getelementptr inbounds nuw %struct.pmix_hash_table_t, ptr %48, i32 0, i32 3
  store i64 %47, ptr %49, align 8, !tbaa !20
  %50 = load i32, ptr %10, align 4, !tbaa !29
  %51 = load ptr, ptr %8, align 8, !tbaa !3
  %52 = getelementptr inbounds nuw %struct.pmix_hash_table_t, ptr %51, i32 0, i32 6
  store i32 %50, ptr %52, align 8, !tbaa !22
  %53 = load i32, ptr %11, align 4, !tbaa !29
  %54 = load ptr, ptr %8, align 8, !tbaa !3
  %55 = getelementptr inbounds nuw %struct.pmix_hash_table_t, ptr %54, i32 0, i32 7
  store i32 %53, ptr %55, align 4, !tbaa !21
  %56 = load i32, ptr %12, align 4, !tbaa !29
  %57 = load ptr, ptr %8, align 8, !tbaa !3
  %58 = getelementptr inbounds nuw %struct.pmix_hash_table_t, ptr %57, i32 0, i32 8
  store i32 %56, ptr %58, align 8, !tbaa !24
  %59 = load i32, ptr %13, align 4, !tbaa !29
  %60 = load ptr, ptr %8, align 8, !tbaa !3
  %61 = getelementptr inbounds nuw %struct.pmix_hash_table_t, ptr %60, i32 0, i32 9
  store i32 %59, ptr %61, align 4, !tbaa !23
  %62 = load i64, ptr %16, align 8, !tbaa !28
  %63 = load i32, ptr %10, align 4, !tbaa !29
  %64 = sext i32 %63 to i64
  %65 = mul i64 %62, %64
  %66 = load i32, ptr %11, align 4, !tbaa !29
  %67 = sext i32 %66 to i64
  %68 = udiv i64 %65, %67
  %69 = load ptr, ptr %8, align 8, !tbaa !3
  %70 = getelementptr inbounds nuw %struct.pmix_hash_table_t, ptr %69, i32 0, i32 5
  store i64 %68, ptr %70, align 8, !tbaa !18
  %71 = load ptr, ptr %8, align 8, !tbaa !3
  %72 = getelementptr inbounds nuw %struct.pmix_hash_table_t, ptr %71, i32 0, i32 10
  store ptr null, ptr %72, align 8, !tbaa !25
  store i32 0, ptr %7, align 4
  store i32 1, ptr %17, align 4
  br label %73

73:                                               ; preds = %46, %45
  call void @llvm.lifetime.end.p0(i64 8, ptr %16) #9
  call void @llvm.lifetime.end.p0(i64 8, ptr %15) #9
  call void @llvm.lifetime.end.p0(i64 8, ptr %14) #9
  %74 = load i32, ptr %7, align 4
  ret i32 %74
}