; Function Attrs: nounwind uwtable
define range(i32 -29, 1) i32 @pmix_hash_table_init2(ptr noundef %0, i64 noundef %1, i32 noundef %2, i32 noundef %3, i32 noundef %4, i32 noundef %5) local_unnamed_addr #1 {
  %7 = getelementptr inbounds nuw i8, ptr %0, i64 56
  %8 = load ptr, ptr %7, align 8, !tbaa !3
  %.not.i = icmp eq ptr %8, null
  %9 = sext i32 %3 to i64
  %10 = mul i64 %1, %9
  %11 = sext i32 %2 to i64
  %12 = udiv i64 %10, %11
  %13 = add i64 %12, 29
  %14 = urem i64 %13, 30
  %15 = add i64 %12, 30
  %16 = sub i64 %15, %14
  br i1 %.not.i, label %21, label %17

17:                                               ; preds = %6
  %18 = getelementptr inbounds nuw i8, ptr %0, i64 64
  %19 = load ptr, ptr %18, align 8, !tbaa !29
  %20 = tail call ptr %19(ptr noundef nonnull %7, i64 noundef range(i64 1, -14) %16, i64 noundef 40) #13
  br label %pmix_tma_calloc.exit

21:                                               ; preds = %6
  %22 = tail call noalias ptr @calloc(i64 noundef range(i64 1, -14) %16, i64 noundef 40) #14
  br label %pmix_tma_calloc.exit

pmix_tma_calloc.exit:                             ; preds = %17, %21
  %.0.i = phi ptr [ %20, %17 ], [ %22, %21 ]
  %23 = getelementptr inbounds nuw i8, ptr %0, i64 128
  store ptr %.0.i, ptr %23, align 8, !tbaa !17
  %24 = icmp eq ptr %.0.i, null
  br i1 %24, label %35, label %25, !prof !30

25:                                               ; preds = %pmix_tma_calloc.exit
  %26 = getelementptr inbounds nuw i8, ptr %0, i64 136
  store i64 %16, ptr %26, align 8, !tbaa !11
  %27 = getelementptr inbounds nuw i8, ptr %0, i64 160
  store i32 %2, ptr %27, align 8, !tbaa !31
  %28 = getelementptr inbounds nuw i8, ptr %0, i64 164
  store i32 %3, ptr %28, align 4, !tbaa !32
  %29 = getelementptr inbounds nuw i8, ptr %0, i64 168
  store i32 %4, ptr %29, align 8, !tbaa !33
  %30 = getelementptr inbounds nuw i8, ptr %0, i64 172
  store i32 %5, ptr %30, align 4, !tbaa !34
  %31 = mul i64 %16, %11
  %32 = udiv i64 %31, %9
  %33 = getelementptr inbounds nuw i8, ptr %0, i64 152
  store i64 %32, ptr %33, align 8, !tbaa !35
  %34 = getelementptr inbounds nuw i8, ptr %0, i64 176
  store ptr null, ptr %34, align 8, !tbaa !21
  br label %35

35:                                               ; preds = %pmix_tma_calloc.exit, %25
  %.0 = phi i32 [ 0, %25 ], [ -29, %pmix_tma_calloc.exit ]
  ret i32 %.0
}